; Function Attrs: mustprogress nofree norecurse nosync nounwind willreturn memory(argmem: write) uwtable
define range(i32 -173, 1) i32 @wc_InitSha224(ptr noundef writeonly captures(address_is_null) %0) local_unnamed_addr #0 {
  %2 = icmp eq ptr %0, null
  br i1 %2, label %wc_InitSha224_ex.exit, label %3

3:                                                ; preds = %1
  %4 = getelementptr inbounds nuw i8, ptr %0, i64 112
  store ptr null, ptr %4, align 16, !tbaa !12
  store i32 -1056596264, ptr %0, align 16, !tbaa !3
  %5 = getelementptr inbounds nuw i8, ptr %0, i64 4
  store i32 914150663, ptr %5, align 4, !tbaa !3
  %6 = getelementptr inbounds nuw i8, ptr %0, i64 8
  store i32 812702999, ptr %6, align 8, !tbaa !3
  %7 = getelementptr inbounds nuw i8, ptr %0, i64 12
  store i32 -150054599, ptr %7, align 4, !tbaa !3
  %8 = getelementptr inbounds nuw i8, ptr %0, i64 16
  store i32 -4191439, ptr %8, align 16, !tbaa !3
  %9 = getelementptr inbounds nuw i8, ptr %0, i64 20
  store i32 1750603025, ptr %9, align 4, !tbaa !3
  %10 = getelementptr inbounds nuw i8, ptr %0, i64 24
  store i32 1694076839, ptr %10, align 8, !tbaa !3
  %11 = getelementptr inbounds nuw i8, ptr %0, i64 28
  store i32 -1090891868, ptr %11, align 4, !tbaa !3
  %12 = getelementptr inbounds nuw i8, ptr %0, i64 96
  store i32 0, ptr %12, align 16, !tbaa !7
  %13 = getelementptr inbounds nuw i8, ptr %0, i64 100
  store i32 0, ptr %13, align 4, !tbaa !10
  %14 = getelementptr inbounds nuw i8, ptr %0, i64 104
  store i32 0, ptr %14, align 8, !tbaa !11
  br label %wc_InitSha224_ex.exit

wc_InitSha224_ex.exit:                            ; preds = %1, %3
  %.0.i = phi i32 [ 0, %3 ], [ -173, %1 ]
  ret i32 %.0.i
}